target datalayout = "e-m:e-p270:32:32-p271:32:32-p272:64:64-i64:64-i128:128-f80:128-n8:16:32:64-S128"
target triple = "x86_64-pc-linux-gnu"

%struct.FrameRectangle = type { i32, i32, i32, i32 }
%struct.WebPAnimEncoderOptions = type { %struct.WebPMuxAnimParams, i32, i32, i32, i32, i32, [4 x i32] }
%struct.WebPMuxAnimParams = type { i32, i32 }
%struct.WebPAnimEncoder = type { i32, i32, %struct.WebPAnimEncoderOptions, %struct.FrameRectangle, %struct.WebPConfig, %struct.WebPConfig, ptr, %struct.WebPPicture, i32, %struct.WebPPicture, %struct.WebPPicture, ptr, i64, i64, i64, i64, i64, i32, i32, i32, i32, i32, i32, i32, i64, i64, ptr, [100 x i8] }
%struct.WebPConfig = type { i32, float, i32, i32, i32, float, i32, i32, i32, i32, i32, i32, i32, i32, i32, i32, i32, i32, i32, i32, i32, i32, i32, i32, i32, i32, i32, i32, i32 }
%struct.WebPPicture = type { i32, i32, i32, i32, ptr, ptr, ptr, i32, i32, ptr, i32, [2 x i32], ptr, i32, [3 x i32], ptr, ptr, i32, ptr, ptr, i32, ptr, ptr, [3 x i32], ptr, ptr, [8 x i32], ptr, ptr, [2 x ptr] }
%struct.EncodedFrame = type { %struct.WebPMuxFrameInfo, %struct.WebPMuxFrameInfo, i32 }
%struct.WebPMuxFrameInfo = type { %struct.WebPData, i32, i32, i32, i32, i32, i32, [1 x i32] }
%struct.WebPData = type { ptr, i64 }

@stderr = external global ptr, align 8
@.str.13 = private unnamed_addr constant [33 x i8] c"ERROR adding frame. WebPMuxError\00", align 1
@.str.14 = private unnamed_addr constant [53 x i8] c"INFO: Added frame. offset:%d,%d dispose:%d blend:%d\0A\00", align 1
@.str.16 = private unnamed_addr constant [8 x i8] c"%s: %d.\00", align 1

; Function Attrs: inlinehint nounwind uwtable
define internal void @WebPDataInit(ptr noundef %0) #4 {
  %2 = alloca ptr, align 8
  store ptr %0, ptr %2, align 8, !tbaa !116
  %3 = load ptr, ptr %2, align 8, !tbaa !116
  %4 = icmp ne ptr %3, null
  br i1 %4, label %5, label %7

5:                                                ; preds = %1
  %6 = load ptr, ptr %2, align 8, !tbaa !116
  call void @llvm.memset.p0.i64(ptr align 8 %6, i8 0, i64 16, i1 false)
  br label %7

7:                                                ; preds = %5, %1
  ret void
}

; Function Attrs: inlinehint nounwind uwtable
define internal void @WebPDataClear(ptr noundef %0) #4 {
  %2 = alloca ptr, align 8
  store ptr %0, ptr %2, align 8, !tbaa !116
  %3 = load ptr, ptr %2, align 8, !tbaa !116
  %4 = icmp ne ptr %3, null
  br i1 %4, label %5, label %10

5:                                                ; preds = %1
  %6 = load ptr, ptr %2, align 8, !tbaa !116
  %7 = getelementptr inbounds nuw %struct.WebPData, ptr %6, i32 0, i32 0
  %8 = load ptr, ptr %7, align 8, !tbaa !90
  call void @WebPFree(ptr noundef %8)
  %9 = load ptr, ptr %2, align 8, !tbaa !116
  call void @WebPDataInit(ptr noundef %9)
  br label %10

10:                                               ; preds = %5, %1
  ret void
}

; Function Attrs: nounwind uwtable
define internal void @FrameRelease(ptr noundef %0) #0 {
  %2 = alloca ptr, align 8
  store ptr %0, ptr %2, align 8, !tbaa !52
  %3 = load ptr, ptr %2, align 8, !tbaa !52
  %4 = icmp ne ptr %3, null
  br i1 %4, label %5, label %13

5:                                                ; preds = %1
  %6 = load ptr, ptr %2, align 8, !tbaa !52
  %7 = getelementptr inbounds nuw %struct.EncodedFrame, ptr %6, i32 0, i32 0
  %8 = getelementptr inbounds nuw %struct.WebPMuxFrameInfo, ptr %7, i32 0, i32 0
  call void @WebPDataClear(ptr noundef %8)
  %9 = load ptr, ptr %2, align 8, !tbaa !52
  %10 = getelementptr inbounds nuw %struct.EncodedFrame, ptr %9, i32 0, i32 1
  %11 = getelementptr inbounds nuw %struct.WebPMuxFrameInfo, ptr %10, i32 0, i32 0
  call void @WebPDataClear(ptr noundef %11)
  %12 = load ptr, ptr %2, align 8, !tbaa !52
  call void @llvm.memset.p0.i64(ptr align 8 %12, i8 0, i64 104, i1 false)
  br label %13

13:                                               ; preds = %5, %1
  ret void
}

; Function Attrs: nounwind uwtable
define internal void @MarkError2(ptr noundef %0, ptr noundef %1, i32 noundef %2) #0 {
  %4 = alloca ptr, align 8
  %5 = alloca ptr, align 8
  %6 = alloca i32, align 4
  store ptr %0, ptr %4, align 8, !tbaa !17
  store ptr %1, ptr %5, align 8, !tbaa !85
  store i32 %2, ptr %6, align 4, !tbaa !8
  %7 = load ptr, ptr %4, align 8, !tbaa !17
  %8 = getelementptr inbounds nuw %struct.WebPAnimEncoder, ptr %7, i32 0, i32 27
  %9 = getelementptr inbounds [100 x i8], ptr %8, i64 0, i64 0
  %10 = load ptr, ptr %5, align 8, !tbaa !85
  %11 = load i32, ptr %6, align 4, !tbaa !8
  %12 = call i32 (ptr, i64, ptr, ...) @snprintf(ptr noundef %9, i64 noundef 100, ptr noundef @.str.16, ptr noundef %10, i32 noundef %11) #8
  %13 = icmp slt i32 %12, 0
  br i1 %13, label %14, label %15

14:                                               ; preds = %3
  br label %15

15:                                               ; preds = %14, %3
  ret void
}

; Function Attrs: nounwind uwtable
define internal ptr @GetFrame(ptr noundef %0, i64 noundef %1) #0 {
  %3 = alloca ptr, align 8
  %4 = alloca i64, align 8
  store ptr %0, ptr %3, align 8, !tbaa !17
  store i64 %1, ptr %4, align 8, !tbaa !64
  %5 = load ptr, ptr %3, align 8, !tbaa !17
  %6 = getelementptr inbounds nuw %struct.WebPAnimEncoder, ptr %5, i32 0, i32 11
  %7 = load ptr, ptr %6, align 8, !tbaa !39
  %8 = load ptr, ptr %3, align 8, !tbaa !17
  %9 = getelementptr inbounds nuw %struct.WebPAnimEncoder, ptr %8, i32 0, i32 13
  %10 = load i64, ptr %9, align 8, !tbaa !59
  %11 = load i64, ptr %4, align 8, !tbaa !64
  %12 = add i64 %10, %11
  %13 = getelementptr inbounds nuw %struct.EncodedFrame, ptr %7, i64 %12
  ret ptr %13
}

; Function Attrs: nounwind uwtable
define internal i32 @FlushFrames(ptr noundef %0) #0 {
  %2 = alloca i32, align 4
  %3 = alloca ptr, align 8
  %4 = alloca i32, align 4
  %5 = alloca ptr, align 8
  %6 = alloca ptr, align 8
  %7 = alloca i32, align 4
  %8 = alloca i32, align 4
  %9 = alloca %struct.EncodedFrame, align 8
  store ptr %0, ptr %3, align 8, !tbaa !17
  br label %10

10:                                               ; preds = %91, %1
  %11 = load ptr, ptr %3, align 8, !tbaa !17
  %12 = getelementptr inbounds nuw %struct.WebPAnimEncoder, ptr %11, i32 0, i32 15
  %13 = load i64, ptr %12, align 8, !tbaa !61
  %14 = icmp ugt i64 %13, 0
  br i1 %14, label %15, label %92

15:                                               ; preds = %10
  call void @llvm.lifetime.start.p0(i64 4, ptr %4) #8
  call void @llvm.lifetime.start.p0(i64 8, ptr %5) #8
  %16 = load ptr, ptr %3, align 8, !tbaa !17
  %17 = call ptr @GetFrame(ptr noundef %16, i64 noundef 0)
  store ptr %17, ptr %5, align 8, !tbaa !52
  call void @llvm.lifetime.start.p0(i64 8, ptr %6) #8
  %18 = load ptr, ptr %5, align 8, !tbaa !52
  %19 = getelementptr inbounds nuw %struct.EncodedFrame, ptr %18, i32 0, i32 2
  %20 = load i32, ptr %19, align 8, !tbaa !94
  %21 = icmp ne i32 %20, 0
  br i1 %21, label %22, label %25

22:                                               ; preds = %15
  %23 = load ptr, ptr %5, align 8, !tbaa !52
  %24 = getelementptr inbounds nuw %struct.EncodedFrame, ptr %23, i32 0, i32 1
  br label %28

25:                                               ; preds = %15
  %26 = load ptr, ptr %5, align 8, !tbaa !52
  %27 = getelementptr inbounds nuw %struct.EncodedFrame, ptr %26, i32 0, i32 0
  br label %28

28:                                               ; preds = %25, %22
  %29 = phi ptr [ %24, %22 ], [ %27, %25 ]
  store ptr %29, ptr %6, align 8, !tbaa !102
  %30 = load ptr, ptr %3, align 8, !tbaa !17
  %31 = getelementptr inbounds nuw %struct.WebPAnimEncoder, ptr %30, i32 0, i32 26
  %32 = load ptr, ptr %31, align 8, !tbaa !40
  %33 = load ptr, ptr %6, align 8, !tbaa !102
  %34 = call i32 @WebPMuxPushFrame(ptr noundef %32, ptr noundef %33, i32 noundef 1)
  store i32 %34, ptr %4, align 4, !tbaa !8
  %35 = load i32, ptr %4, align 4, !tbaa !8
  %36 = icmp ne i32 %35, 1
  br i1 %36, label %37, label %40

37:                                               ; preds = %28
  %38 = load ptr, ptr %3, align 8, !tbaa !17
  %39 = load i32, ptr %4, align 4, !tbaa !8
  call void @MarkError2(ptr noundef %38, ptr noundef @.str.13, i32 noundef %39)
  store i32 0, ptr %2, align 4
  store i32 1, ptr %7, align 4
  br label %89

40:                                               ; preds = %28
  %41 = load ptr, ptr %3, align 8, !tbaa !17
  %42 = getelementptr inbounds nuw %struct.WebPAnimEncoder, ptr %41, i32 0, i32 2
  %43 = getelementptr inbounds nuw %struct.WebPAnimEncoderOptions, ptr %42, i32 0, i32 5
  %44 = load i32, ptr %43, align 8, !tbaa !81
  %45 = icmp ne i32 %44, 0
  br i1 %45, label %46, label %61

46:                                               ; preds = %40
  %47 = load ptr, ptr @stderr, align 8, !tbaa !49
  %48 = load ptr, ptr %6, align 8, !tbaa !102
  %49 = getelementptr inbounds nuw %struct.WebPMuxFrameInfo, ptr %48, i32 0, i32 1
  %50 = load i32, ptr %49, align 8, !tbaa !104
  %51 = load ptr, ptr %6, align 8, !tbaa !102
  %52 = getelementptr inbounds nuw %struct.WebPMuxFrameInfo, ptr %51, i32 0, i32 2
  %53 = load i32, ptr %52, align 4, !tbaa !105
  %54 = load ptr, ptr %6, align 8, !tbaa !102
  %55 = getelementptr inbounds nuw %struct.WebPMuxFrameInfo, ptr %54, i32 0, i32 5
  %56 = load i32, ptr %55, align 8, !tbaa !106
  %57 = load ptr, ptr %6, align 8, !tbaa !102
  %58 = getelementptr inbounds nuw %struct.WebPMuxFrameInfo, ptr %57, i32 0, i32 6
  %59 = load i32, ptr %58, align 4, !tbaa !107
  %60 = call i32 (ptr, ptr, ...) @fprintf(ptr noundef %47, ptr noundef @.str.14, i32 noundef %50, i32 noundef %53, i32 noundef %56, i32 noundef %59) #8
  br label %61

61:                                               ; preds = %46, %40
  %62 = load ptr, ptr %3, align 8, !tbaa !17
  %63 = getelementptr inbounds nuw %struct.WebPAnimEncoder, ptr %62, i32 0, i32 25
  %64 = load i64, ptr %63, align 8, !tbaa !108
  %65 = add i64 %64, 1
  store i64 %65, ptr %63, align 8, !tbaa !108
  %66 = load ptr, ptr %5, align 8, !tbaa !52
  call void @FrameRelease(ptr noundef %66)
  %67 = load ptr, ptr %3, align 8, !tbaa !17
  %68 = getelementptr inbounds nuw %struct.WebPAnimEncoder, ptr %67, i32 0, i32 13
  %69 = load i64, ptr %68, align 8, !tbaa !59
  %70 = add i64 %69, 1
  store i64 %70, ptr %68, align 8, !tbaa !59
  %71 = load ptr, ptr %3, align 8, !tbaa !17
  %72 = getelementptr inbounds nuw %struct.WebPAnimEncoder, ptr %71, i32 0, i32 15
  %73 = load i64, ptr %72, align 8, !tbaa !61
  %74 = add i64 %73, -1
  store i64 %74, ptr %72, align 8, !tbaa !61
  %75 = load ptr, ptr %3, align 8, !tbaa !17
  %76 = getelementptr inbounds nuw %struct.WebPAnimEncoder, ptr %75, i32 0, i32 14
  %77 = load i64, ptr %76, align 8, !tbaa !60
  %78 = add i64 %77, -1
  store i64 %78, ptr %76, align 8, !tbaa !60
  %79 = load ptr, ptr %3, align 8, !tbaa !17
  %80 = getelementptr inbounds nuw %struct.WebPAnimEncoder, ptr %79, i32 0, i32 17
  %81 = load i32, ptr %80, align 8, !tbaa !63
  %82 = icmp ne i32 %81, -1
  br i1 %82, label %83, label %88

83:                                               ; preds = %61
  %84 = load ptr, ptr %3, align 8, !tbaa !17
  %85 = getelementptr inbounds nuw %struct.WebPAnimEncoder, ptr %84, i32 0, i32 17
  %86 = load i32, ptr %85, align 8, !tbaa !63
  %87 = add nsw i32 %86, -1
  store i32 %87, ptr %85, align 8, !tbaa !63
  br label %88

88:                                               ; preds = %83, %61
  store i32 0, ptr %7, align 4
  br label %89

89:                                               ; preds = %88, %37
  call void @llvm.lifetime.end.p0(i64 8, ptr %6) #8
  call void @llvm.lifetime.end.p0(i64 8, ptr %5) #8
  call void @llvm.lifetime.end.p0(i64 4, ptr %4) #8
  %90 = load i32, ptr %7, align 4
  switch i32 %90, label %138 [
    i32 0, label %91
    i32 1, label %136
  ]

91:                                               ; preds = %89
  br label %10, !llvm.loop !109

92:                                               ; preds = %10
  %93 = load ptr, ptr %3, align 8, !tbaa !17
  %94 = getelementptr inbounds nuw %struct.WebPAnimEncoder, ptr %93, i32 0, i32 14
  %95 = load i64, ptr %94, align 8, !tbaa !60
  %96 = icmp eq i64 %95, 1
  br i1 %96, label %97, label %135

97:                                               ; preds = %92
  %98 = load ptr, ptr %3, align 8, !tbaa !17
  %99 = getelementptr inbounds nuw %struct.WebPAnimEncoder, ptr %98, i32 0, i32 13
  %100 = load i64, ptr %99, align 8, !tbaa !59
  %101 = icmp ne i64 %100, 0
  br i1 %101, label %102, label %135

102:                                              ; preds = %97
  call void @llvm.lifetime.start.p0(i64 4, ptr %8) #8
  %103 = load ptr, ptr %3, align 8, !tbaa !17
  %104 = getelementptr inbounds nuw %struct.WebPAnimEncoder, ptr %103, i32 0, i32 13
  %105 = load i64, ptr %104, align 8, !tbaa !59
  %106 = trunc i64 %105 to i32
  store i32 %106, ptr %8, align 4, !tbaa !8
  call void @llvm.lifetime.start.p0(i64 104, ptr %9) #8
  %107 = load ptr, ptr %3, align 8, !tbaa !17
  %108 = getelementptr inbounds nuw %struct.WebPAnimEncoder, ptr %107, i32 0, i32 11
  %109 = load ptr, ptr %108, align 8, !tbaa !39
  %110 = getelementptr inbounds %struct.EncodedFrame, ptr %109, i64 0
  call void @llvm.memcpy.p0.p0.i64(ptr align 8 %9, ptr align 8 %110, i64 104, i1 false), !tbaa.struct !110
  %111 = load ptr, ptr %3, align 8, !tbaa !17
  %112 = getelementptr inbounds nuw %struct.WebPAnimEncoder, ptr %111, i32 0, i32 11
  %113 = load ptr, ptr %112, align 8, !tbaa !39
  %114 = getelementptr inbounds %struct.EncodedFrame, ptr %113, i64 0
  %115 = load ptr, ptr %3, align 8, !tbaa !17
  %116 = getelementptr inbounds nuw %struct.WebPAnimEncoder, ptr %115, i32 0, i32 11
  %117 = load ptr, ptr %116, align 8, !tbaa !39
  %118 = load i32, ptr %8, align 4, !tbaa !8
  %119 = sext i32 %118 to i64
  %120 = getelementptr inbounds %struct.EncodedFrame, ptr %117, i64 %119
  call void @llvm.memcpy.p0.p0.i64(ptr align 8 %114, ptr align 8 %120, i64 104, i1 false), !tbaa.struct !110
  %121 = load ptr, ptr %3, align 8, !tbaa !17
  %122 = getelementptr inbounds nuw %struct.WebPAnimEncoder, ptr %121, i32 0, i32 11
  %123 = load ptr, ptr %122, align 8, !tbaa !39
  %124 = load i32, ptr %8, align 4, !tbaa !8
  %125 = sext i32 %124 to i64
  %126 = getelementptr inbounds %struct.EncodedFrame, ptr %123, i64 %125
  call void @llvm.memcpy.p0.p0.i64(ptr align 8 %126, ptr align 8 %9, i64 104, i1 false), !tbaa.struct !110
  %127 = load ptr, ptr %3, align 8, !tbaa !17
  %128 = getelementptr inbounds nuw %struct.WebPAnimEncoder, ptr %127, i32 0, i32 11
  %129 = load ptr, ptr %128, align 8, !tbaa !39
  %130 = load i32, ptr %8, align 4, !tbaa !8
  %131 = sext i32 %130 to i64
  %132 = getelementptr inbounds %struct.EncodedFrame, ptr %129, i64 %131
  call void @FrameRelease(ptr noundef %132)
  %133 = load ptr, ptr %3, align 8, !tbaa !17
  %134 = getelementptr inbounds nuw %struct.WebPAnimEncoder, ptr %133, i32 0, i32 13
  store i64 0, ptr %134, align 8, !tbaa !59
  call void @llvm.lifetime.end.p0(i64 104, ptr %9) #8
  call void @llvm.lifetime.end.p0(i64 4, ptr %8) #8
  br label %135

135:                                              ; preds = %102, %97, %92
  store i32 1, ptr %2, align 4
  br label %136

136:                                              ; preds = %135, %89
  %137 = load i32, ptr %2, align 4
  ret i32 %137

138:                                              ; preds = %89
  unreachable
}