; Function Attrs: nounwind uwtable
define internal fastcc range(i32 0, 2) i32 @FlushFrames(ptr noundef nonnull captures(none) %0) unnamed_addr #1 {
  %2 = alloca %struct.EncodedFrame, align 8
  %3 = getelementptr inbounds nuw i8, ptr %0, i64 1120
  %4 = load i64, ptr %3, align 8, !tbaa !84
  %.not48 = icmp eq i64 %4, 0
  br i1 %.not48, label %.._crit_edge_crit_edge, label %.lr.ph

.._crit_edge_crit_edge:                           ; preds = %1
  %.phi.trans.insert = getelementptr inbounds nuw i8, ptr %0, i64 1112
  %.pre = load i64, ptr %.phi.trans.insert, align 8, !tbaa !67
  br label %._crit_edge

.lr.ph:                                           ; preds = %1
  %5 = getelementptr i8, ptr %0, i64 1088
  %6 = getelementptr i8, ptr %0, i64 1104
  %7 = getelementptr inbounds nuw i8, ptr %0, i64 1184
  %8 = getelementptr inbounds nuw i8, ptr %0, i64 32
  %9 = getelementptr inbounds nuw i8, ptr %0, i64 1176
  %10 = getelementptr inbounds nuw i8, ptr %0, i64 1112
  %11 = getelementptr inbounds nuw i8, ptr %0, i64 1136
  %.val44.pre = load i64, ptr %6, align 8, !tbaa !80
  br label %12

12:                                               ; preds = %.lr.ph, %50
  %.val44 = phi i64 [ %.val44.pre, %.lr.ph ], [ %42, %50 ]
  %.val = load ptr, ptr %5, align 8, !tbaa !41
  %13 = getelementptr %struct.EncodedFrame, ptr %.val, i64 %.val44
  %14 = getelementptr inbounds nuw i8, ptr %13, i64 96
  %15 = load i32, ptr %14, align 8, !tbaa !81
  %.not40 = icmp eq i32 %15, 0
  %.idx = select i1 %.not40, i64 0, i64 48
  %16 = getelementptr inbounds nuw i8, ptr %13, i64 %.idx
  %17 = load ptr, ptr %7, align 8, !tbaa !42
  %18 = tail call i32 @WebPMuxPushFrame(ptr noundef %17, ptr noundef %16, i32 noundef 1) #14
  %.not41.not = icmp eq i32 %18, 1
  br i1 %.not41.not, label %21, label %.thread

.thread:                                          ; preds = %12
  %19 = getelementptr inbounds nuw i8, ptr %0, i64 1192
  %20 = tail call i32 (ptr, i64, ptr, ...) @snprintf(ptr noundef nonnull dereferenceable(1) %19, i64 noundef 100, ptr noundef nonnull @.str.16, ptr noundef nonnull @.str.13, i32 noundef %18) #14
  br label %69

21:                                               ; preds = %12
  %22 = load i32, ptr %8, align 8, !tbaa !71
  %.not42 = icmp eq i32 %22, 0
  br i1 %.not42, label %34, label %23

23:                                               ; preds = %21
  %24 = load ptr, ptr @stderr, align 8, !tbaa !18
  %25 = getelementptr inbounds nuw i8, ptr %16, i64 16
  %26 = load i32, ptr %25, align 8, !tbaa !101
  %27 = getelementptr inbounds nuw i8, ptr %16, i64 20
  %28 = load i32, ptr %27, align 4, !tbaa !102
  %29 = getelementptr inbounds nuw i8, ptr %16, i64 32
  %30 = load i32, ptr %29, align 8, !tbaa !103
  %31 = getelementptr inbounds nuw i8, ptr %16, i64 36
  %32 = load i32, ptr %31, align 4, !tbaa !104
  %33 = tail call i32 (ptr, ptr, ...) @fprintf(ptr noundef %24, ptr noundef nonnull @.str.14, i32 noundef %26, i32 noundef %28, i32 noundef %30, i32 noundef %32) #15
  br label %34

34:                                               ; preds = %23, %21
  %35 = load i64, ptr %9, align 8, !tbaa !105
  %36 = add i64 %35, 1
  store i64 %36, ptr %9, align 8, !tbaa !105
  %.not.i = icmp eq ptr %13, null
  br i1 %.not.i, label %FrameRelease.exit, label %37

37:                                               ; preds = %34
  %38 = load ptr, ptr %13, align 8, !tbaa !55
  tail call void @WebPFree(ptr noundef %38) #14
  tail call void @llvm.memset.p0.i64(ptr noundef nonnull align 8 dereferenceable(16) %13, i8 0, i64 16, i1 false)
  %39 = getelementptr inbounds nuw i8, ptr %13, i64 48
  %40 = load ptr, ptr %39, align 8, !tbaa !55
  tail call void @WebPFree(ptr noundef %40) #14
  tail call void @llvm.memset.p0.i64(ptr noundef nonnull align 8 dereferenceable(104) %13, i8 0, i64 104, i1 false)
  br label %FrameRelease.exit

FrameRelease.exit:                                ; preds = %34, %37
  %41 = load i64, ptr %6, align 8, !tbaa !80
  %42 = add i64 %41, 1
  store i64 %42, ptr %6, align 8, !tbaa !80
  %43 = load i64, ptr %3, align 8, !tbaa !84
  %44 = add i64 %43, -1
  store i64 %44, ptr %3, align 8, !tbaa !84
  %45 = load i64, ptr %10, align 8, !tbaa !67
  %46 = add i64 %45, -1
  store i64 %46, ptr %10, align 8, !tbaa !67
  %47 = load i32, ptr %11, align 8, !tbaa !37
  %.not43 = icmp eq i32 %47, -1
  br i1 %.not43, label %50, label %48

48:                                               ; preds = %FrameRelease.exit
  %49 = add nsw i32 %47, -1
  store i32 %49, ptr %11, align 8, !tbaa !37
  br label %50

50:                                               ; preds = %FrameRelease.exit, %48
  %.not = icmp eq i64 %44, 0
  br i1 %.not, label %._crit_edge, label %12

._crit_edge:                                      ; preds = %50, %.._crit_edge_crit_edge
  %51 = phi i64 [ %.pre, %.._crit_edge_crit_edge ], [ %46, %50 ]
  %52 = icmp eq i64 %51, 1
  br i1 %52, label %53, label %69

53:                                               ; preds = %._crit_edge
  %54 = getelementptr inbounds nuw i8, ptr %0, i64 1104
  %55 = load i64, ptr %54, align 8, !tbaa !80
  %.not39 = icmp eq i64 %55, 0
  br i1 %.not39, label %69, label %56

56:                                               ; preds = %53
  call void @llvm.lifetime.start.p0(i64 104, ptr nonnull %2)
  %57 = getelementptr inbounds nuw i8, ptr %0, i64 1088
  %58 = load ptr, ptr %57, align 8, !tbaa !41
  call void @llvm.memcpy.p0.p0.i64(ptr noundef nonnull align 8 dereferenceable(104) %2, ptr noundef nonnull align 8 dereferenceable(104) %58, i64 104, i1 false), !tbaa.struct !106
  %sext = shl i64 %55, 32
  %59 = ashr exact i64 %sext, 32
  %60 = getelementptr inbounds %struct.EncodedFrame, ptr %58, i64 %59
  tail call void @llvm.memcpy.p0.p0.i64(ptr noundef nonnull align 8 dereferenceable(104) %58, ptr noundef nonnull align 8 dereferenceable(104) %60, i64 104, i1 false), !tbaa.struct !106
  %61 = load ptr, ptr %57, align 8, !tbaa !41
  %62 = getelementptr inbounds %struct.EncodedFrame, ptr %61, i64 %59
  call void @llvm.memcpy.p0.p0.i64(ptr noundef nonnull align 8 dereferenceable(104) %62, ptr noundef nonnull align 8 dereferenceable(104) %2, i64 104, i1 false), !tbaa.struct !106
  %63 = load ptr, ptr %57, align 8, !tbaa !41
  %.not.i45 = icmp eq ptr %63, null
  br i1 %.not.i45, label %FrameRelease.exit46, label %64

64:                                               ; preds = %56
  %65 = getelementptr inbounds %struct.EncodedFrame, ptr %63, i64 %59
  %66 = load ptr, ptr %65, align 8, !tbaa !55
  tail call void @WebPFree(ptr noundef %66) #14
  tail call void @llvm.memset.p0.i64(ptr noundef nonnull align 8 dereferenceable(16) %65, i8 0, i64 16, i1 false)
  %67 = getelementptr inbounds nuw i8, ptr %65, i64 48
  %68 = load ptr, ptr %67, align 8, !tbaa !55
  tail call void @WebPFree(ptr noundef %68) #14
  tail call void @llvm.memset.p0.i64(ptr noundef nonnull align 8 dereferenceable(104) %65, i8 0, i64 104, i1 false)
  br label %FrameRelease.exit46

FrameRelease.exit46:                              ; preds = %56, %64
  store i64 0, ptr %54, align 8, !tbaa !80
  call void @llvm.lifetime.end.p0(i64 104, ptr nonnull %2)
  br label %69

69:                                               ; preds = %.thread, %._crit_edge, %53, %FrameRelease.exit46
  %.2 = phi i32 [ 1, %FrameRelease.exit46 ], [ 1, %53 ], [ 1, %._crit_edge ], [ 0, %.thread ]
  ret i32 %.2
}